target datalayout = "e-m:e-p270:32:32-p271:32:32-p272:64:64-i64:64-i128:128-f80:128-n8:16:32:64-S128"
target triple = "x86_64-unknown-linux-gnu"

%"class.google::protobuf::internal::InternalMetadata" = type { i64 }
%"class.google::protobuf::internal::CachedSize" = type { i32 }
%"class.google::protobuf::Message" = type { %"class.google::protobuf::MessageLite" }
%"class.google::protobuf::MessageLite" = type { ptr, %"class.google::protobuf::internal::InternalMetadata" }
%"class.google::protobuf::internal::RepeatedPtrFieldBase" = type { ptr, i32, i32, ptr }
%"class.google::protobuf::GeneratedCodeInfo" = type { %"class.google::protobuf::Message", %union.anon.22 }
%union.anon.22 = type { %"struct.google::protobuf::GeneratedCodeInfo::Impl_" }
%"struct.google::protobuf::GeneratedCodeInfo::Impl_" = type <{ %"class.google::protobuf::RepeatedPtrField.21", %"class.google::protobuf::internal::CachedSize", [4 x i8] }>
%"class.google::protobuf::RepeatedPtrField.21" = type { %"class.google::protobuf::internal::RepeatedPtrFieldBase" }
%"class.google::protobuf::internal::RepeatedPtrIterator.199" = type { ptr }
%"class.google::protobuf::internal::RepeatedPtrIterator.232" = type { ptr }
%"struct.google::protobuf::internal::RepeatedPtrFieldBase::Rep" = type { i32, [268435454 x ptr] }

; Function Attrs: noreturn nounwind uwtable
define linkonce_odr hidden void @__clang_call_terminate(ptr noundef %0) #6 comdat {
  %2 = call ptr @__cxa_begin_catch(ptr %0) #3
  call void @_ZSt9terminatev() #17
  unreachable
}

; Function Attrs: mustprogress nounwind uwtable
define linkonce_odr hidden noundef ptr @_ZN6google8protobuf8internal20RepeatedPtrFieldBase3repEv(ptr noundef nonnull align 8 dereferenceable(24) %this) #5 comdat align 2 {
entry:
  %this.addr = alloca ptr, align 8
  store ptr %this, ptr %this.addr, align 8
  %this1 = load ptr, ptr %this.addr, align 8
  %tagged_rep_or_elem_ = getelementptr inbounds %"class.google::protobuf::internal::RepeatedPtrFieldBase", ptr %this1, i32 0, i32 0
  %0 = load ptr, ptr %tagged_rep_or_elem_, align 8
  %1 = ptrtoint ptr %0 to i64
  %sub = sub i64 %1, 1
  %2 = inttoptr i64 %sub to ptr
  ret ptr %2
}

; Function Attrs: mustprogress nounwind uwtable
define linkonce_odr hidden noundef i32 @_ZN4absl12lts_2023080211countl_zeroIjEENSt9enable_ifIXsr3std11is_unsignedIT_EE5valueEiE4typeES3_(i32 noundef %x) #5 comdat personality ptr @__gxx_personality_v0 {
entry:
  %x.addr.i1 = alloca i32, align 4
  %x.addr.i = alloca i32, align 4
  %x.addr = alloca i32, align 4
  store i32 %x, ptr %x.addr, align 4
  %0 = load i32, ptr %x.addr, align 4
  store i32 %0, ptr %x.addr.i, align 4
  %1 = load i32, ptr %x.addr.i, align 4
  store i32 %1, ptr %x.addr.i1, align 4
  %2 = load i32, ptr %x.addr.i1, align 4
  %cmp.i = icmp eq i32 %2, 0
  br i1 %cmp.i, label %cond.true.i, label %cond.false.i

cond.true.i:                                      ; preds = %entry
  br label %_ZN4absl12lts_2023080216numeric_internal20CountLeadingZeroes32Ej.exit

cond.false.i:                                     ; preds = %entry
  %3 = load i32, ptr %x.addr.i1, align 4
  %4 = call i32 @llvm.ctlz.i32(i32 %3, i1 true)
  br label %_ZN4absl12lts_2023080216numeric_internal20CountLeadingZeroes32Ej.exit

_ZN4absl12lts_2023080216numeric_internal20CountLeadingZeroes32Ej.exit: ; preds = %cond.false.i, %cond.true.i
  %cond.i = phi i32 [ 32, %cond.true.i ], [ %4, %cond.false.i ]
  br label %invoke.cont

invoke.cont:                                      ; preds = %_ZN4absl12lts_2023080216numeric_internal20CountLeadingZeroes32Ej.exit
  ret i32 %cond.i

terminate.lpad:                                   ; No predecessors!
  %5 = landingpad { ptr, i32 }
          catch ptr null
  %6 = extractvalue { ptr, i32 } %5, 0
  call void @__clang_call_terminate(ptr %6) #17
  unreachable
}

; Function Attrs: mustprogress uwtable
define linkonce_odr hidden noundef ptr @_ZNK6google8protobuf8internal20RepeatedPtrFieldBase3repEv(ptr noundef nonnull align 8 dereferenceable(24) %this) #4 comdat align 2 {
entry:
  %this.addr = alloca ptr, align 8
  store ptr %this, ptr %this.addr, align 8
  %this1 = load ptr, ptr %this.addr, align 8
  %call = call noundef ptr @_ZN6google8protobuf8internal20RepeatedPtrFieldBase3repEv(ptr noundef nonnull align 8 dereferenceable(24) %this1)
  ret ptr %call
}

; Function Attrs: mustprogress nounwind uwtable
define linkonce_odr hidden noundef zeroext i1 @_ZNK6google8protobuf8internal20RepeatedPtrFieldBase9using_ssoEv(ptr noundef nonnull align 8 dereferenceable(24) %this) #5 comdat align 2 {
entry:
  %this.addr = alloca ptr, align 8
  store ptr %this, ptr %this.addr, align 8
  %this1 = load ptr, ptr %this.addr, align 8
  %tagged_rep_or_elem_ = getelementptr inbounds %"class.google::protobuf::internal::RepeatedPtrFieldBase", ptr %this1, i32 0, i32 0
  %0 = load ptr, ptr %tagged_rep_or_elem_, align 8
  %1 = ptrtoint ptr %0 to i64
  %and = and i64 %1, 1
  %cmp = icmp eq i64 %and, 0
  ret i1 %cmp
}

; Function Attrs: mustprogress nounwind uwtable
define linkonce_odr hidden noundef i64 @_ZN6google8protobuf2io17CodedOutputStream12VarintSize32Ej(i32 noundef %value) #5 comdat align 2 {
entry:
  %value.addr = alloca i32, align 4
  %log2value = alloca i32, align 4
  store i32 %value, ptr %value.addr, align 4
  %0 = load i32, ptr %value.addr, align 4
  %or = or i32 %0, 1
  %call = call noundef i32 @_ZN4absl12lts_2023080211countl_zeroIjEENSt9enable_ifIXsr3std11is_unsignedIT_EE5valueEiE4typeES3_(i32 noundef %or) #3
  %sub = sub nsw i32 31, %call
  store i32 %sub, ptr %log2value, align 4
  %1 = load i32, ptr %log2value, align 4
  %mul = mul i32 %1, 9
  %add = add i32 %mul, 73
  %div = udiv i32 %add, 64
  %conv = zext i32 %div to i64
  ret i64 %conv
}

; Function Attrs: mustprogress uwtable
define linkonce_odr hidden noundef ptr @_ZNK6google8protobuf8internal20RepeatedPtrFieldBase8elementsEv(ptr noundef nonnull align 8 dereferenceable(24) %this) #4 comdat align 2 {
entry:
  %this.addr = alloca ptr, align 8
  store ptr %this, ptr %this.addr, align 8
  %this1 = load ptr, ptr %this.addr, align 8
  %call = call noundef zeroext i1 @_ZNK6google8protobuf8internal20RepeatedPtrFieldBase9using_ssoEv(ptr noundef nonnull align 8 dereferenceable(24) %this1)
  br i1 %call, label %cond.true, label %cond.false

cond.true:                                        ; preds = %entry
  %tagged_rep_or_elem_ = getelementptr inbounds %"class.google::protobuf::internal::RepeatedPtrFieldBase", ptr %this1, i32 0, i32 0
  br label %cond.end

cond.false:                                       ; preds = %entry
  %call2 = call noundef ptr @_ZNK6google8protobuf8internal20RepeatedPtrFieldBase3repEv(ptr noundef nonnull align 8 dereferenceable(24) %this1)
  %elements = getelementptr inbounds %"struct.google::protobuf::internal::RepeatedPtrFieldBase::Rep", ptr %call2, i32 0, i32 1
  %arraydecay = getelementptr inbounds [268435454 x ptr], ptr %elements, i64 0, i64 0
  br label %cond.end

cond.end:                                         ; preds = %cond.false, %cond.true
  %cond = phi ptr [ %tagged_rep_or_elem_, %cond.true ], [ %arraydecay, %cond.false ]
  ret ptr %cond
}

; Function Attrs: mustprogress nounwind uwtable
define linkonce_odr hidden noundef i32 @_ZNK6google8protobuf8internal20RepeatedPtrFieldBase4sizeEv(ptr noundef nonnull align 8 dereferenceable(24) %this) #5 comdat align 2 {
entry:
  %this.addr = alloca ptr, align 8
  store ptr %this, ptr %this.addr, align 8
  %this1 = load ptr, ptr %this.addr, align 8
  %current_size_ = getelementptr inbounds %"class.google::protobuf::internal::RepeatedPtrFieldBase", ptr %this1, i32 0, i32 1
  %0 = load i32, ptr %current_size_, align 8
  ret i32 %0
}

; Function Attrs: mustprogress uwtable
define linkonce_odr hidden noundef i64 @_ZN6google8protobuf8internal14WireFormatLite19LengthDelimitedSizeEm(i64 noundef %length) #4 comdat align 2 {
entry:
  %length.addr = alloca i64, align 8
  store i64 %length, ptr %length.addr, align 8
  %0 = load i64, ptr %length.addr, align 8
  %1 = load i64, ptr %length.addr, align 8
  %conv = trunc i64 %1 to i32
  %call = call noundef i64 @_ZN6google8protobuf2io17CodedOutputStream12VarintSize32Ej(i32 noundef %conv)
  %add = add i64 %0, %call
  ret i64 %add
}

; Function Attrs: mustprogress nounwind uwtable
define linkonce_odr hidden void @_ZN6google8protobuf8internal19RepeatedPtrIteratorIKNS0_28GeneratedCodeInfo_AnnotationEEC2IS3_TnPNSt9enable_ifIXsr3std14is_convertibleIPT_PS4_EE5valueEvE4typeELPv0EEERKNS2_IS8_EE(ptr noundef nonnull align 8 dereferenceable(8) %this, ptr noundef nonnull align 8 dereferenceable(8) %other) unnamed_addr #5 comdat align 2 {
entry:
  %this.addr = alloca ptr, align 8
  %other.addr = alloca ptr, align 8
  store ptr %this, ptr %this.addr, align 8
  store ptr %other, ptr %other.addr, align 8
  %this1 = load ptr, ptr %this.addr, align 8
  %it_ = getelementptr inbounds %"class.google::protobuf::internal::RepeatedPtrIterator.199", ptr %this1, i32 0, i32 0
  %0 = load ptr, ptr %other.addr, align 8
  %it_2 = getelementptr inbounds %"class.google::protobuf::internal::RepeatedPtrIterator.232", ptr %0, i32 0, i32 0
  %1 = load ptr, ptr %it_2, align 8
  store ptr %1, ptr %it_, align 8
  ret void
}

; Function Attrs: mustprogress nounwind uwtable
define linkonce_odr hidden void @_ZN6google8protobuf8internal19RepeatedPtrIteratorINS0_28GeneratedCodeInfo_AnnotationEEC2EPKPv(ptr noundef nonnull align 8 dereferenceable(8) %this, ptr noundef %it) unnamed_addr #5 comdat align 2 {
entry:
  %this.addr = alloca ptr, align 8
  %it.addr = alloca ptr, align 8
  store ptr %this, ptr %this.addr, align 8
  store ptr %it, ptr %it.addr, align 8
  %this1 = load ptr, ptr %this.addr, align 8
  %it_ = getelementptr inbounds %"class.google::protobuf::internal::RepeatedPtrIterator.232", ptr %this1, i32 0, i32 0
  %0 = load ptr, ptr %it.addr, align 8
  store ptr %0, ptr %it_, align 8
  ret void
}

; Function Attrs: mustprogress uwtable
define linkonce_odr hidden noundef ptr @_ZNK6google8protobuf8internal20RepeatedPtrFieldBase8raw_dataEv(ptr noundef nonnull align 8 dereferenceable(24) %this) #4 comdat align 2 {
entry:
  %this.addr = alloca ptr, align 8
  store ptr %this, ptr %this.addr, align 8
  %this1 = load ptr, ptr %this.addr, align 8
  %call = call noundef ptr @_ZNK6google8protobuf8internal20RepeatedPtrFieldBase8elementsEv(ptr noundef nonnull align 8 dereferenceable(24) %this1)
  ret ptr %call
}

; Function Attrs: mustprogress nounwind uwtable
define linkonce_odr hidden noundef i32 @_ZNK6google8protobuf16RepeatedPtrFieldINS0_28GeneratedCodeInfo_AnnotationEE4sizeEv(ptr noundef nonnull align 8 dereferenceable(24) %this) #5 comdat align 2 {
entry:
  %this.addr = alloca ptr, align 8
  store ptr %this, ptr %this.addr, align 8
  %this1 = load ptr, ptr %this.addr, align 8
  %call = call noundef i32 @_ZNK6google8protobuf8internal20RepeatedPtrFieldBase4sizeEv(ptr noundef nonnull align 8 dereferenceable(24) %this1)
  ret i32 %call
}

; Function Attrs: mustprogress nounwind uwtable
define linkonce_odr hidden noundef nonnull align 8 dereferenceable(8) ptr @_ZN6google8protobuf8internal19RepeatedPtrIteratorIKNS0_28GeneratedCodeInfo_AnnotationEEppEv(ptr noundef nonnull align 8 dereferenceable(8) %this) #5 comdat align 2 {
entry:
  %this.addr = alloca ptr, align 8
  store ptr %this, ptr %this.addr, align 8
  %this1 = load ptr, ptr %this.addr, align 8
  %it_ = getelementptr inbounds %"class.google::protobuf::internal::RepeatedPtrIterator.199", ptr %this1, i32 0, i32 0
  %0 = load ptr, ptr %it_, align 8
  %incdec.ptr = getelementptr inbounds ptr, ptr %0, i32 1
  store ptr %incdec.ptr, ptr %it_, align 8
  ret ptr %this1
}

; Function Attrs: mustprogress uwtable
define linkonce_odr hidden noundef i64 @_ZN6google8protobuf8internal14WireFormatLite11MessageSizeINS0_28GeneratedCodeInfo_AnnotationEEEmRKT_(ptr noundef nonnull align 8 dereferenceable(72) %value) #4 comdat align 2 {
entry:
  %value.addr = alloca ptr, align 8
  store ptr %value, ptr %value.addr, align 8
  %0 = load ptr, ptr %value.addr, align 8
  %call = call noundef i64 @_ZNK6google8protobuf28GeneratedCodeInfo_Annotation12ByteSizeLongEv(ptr noundef nonnull align 8 dereferenceable(72) %0)
  %call1 = call noundef i64 @_ZN6google8protobuf8internal14WireFormatLite19LengthDelimitedSizeEm(i64 noundef %call)
  ret i64 %call1
}

; Function Attrs: mustprogress nounwind uwtable
define linkonce_odr hidden noundef nonnull align 8 dereferenceable(72) ptr @_ZNK6google8protobuf8internal19RepeatedPtrIteratorIKNS0_28GeneratedCodeInfo_AnnotationEEdeEv(ptr noundef nonnull align 8 dereferenceable(8) %this) #5 comdat align 2 {
entry:
  %this.addr = alloca ptr, align 8
  store ptr %this, ptr %this.addr, align 8
  %this1 = load ptr, ptr %this.addr, align 8
  %it_ = getelementptr inbounds %"class.google::protobuf::internal::RepeatedPtrIterator.199", ptr %this1, i32 0, i32 0
  %0 = load ptr, ptr %it_, align 8
  %1 = load ptr, ptr %0, align 8
  ret ptr %1
}

; Function Attrs: mustprogress nounwind uwtable
define linkonce_odr hidden noundef zeroext i1 @_ZN6google8protobuf8internalneERKNS1_19RepeatedPtrIteratorIKNS0_28GeneratedCodeInfo_AnnotationEEES7_(ptr noundef nonnull align 8 dereferenceable(8) %x, ptr noundef nonnull align 8 dereferenceable(8) %y) #5 comdat {
entry:
  %x.addr = alloca ptr, align 8
  %y.addr = alloca ptr, align 8
  store ptr %x, ptr %x.addr, align 8
  store ptr %y, ptr %y.addr, align 8
  %0 = load ptr, ptr %x.addr, align 8
  %it_ = getelementptr inbounds %"class.google::protobuf::internal::RepeatedPtrIterator.199", ptr %0, i32 0, i32 0
  %1 = load ptr, ptr %it_, align 8
  %2 = load ptr, ptr %y.addr, align 8
  %it_1 = getelementptr inbounds %"class.google::protobuf::internal::RepeatedPtrIterator.199", ptr %2, i32 0, i32 0
  %3 = load ptr, ptr %it_1, align 8
  %cmp = icmp ne ptr %1, %3
  ret i1 %cmp
}

; Function Attrs: mustprogress uwtable
define linkonce_odr hidden ptr @_ZNK6google8protobuf16RepeatedPtrFieldINS0_28GeneratedCodeInfo_AnnotationEE3endEv(ptr noundef nonnull align 8 dereferenceable(24) %this) #4 comdat align 2 {
entry:
  %retval = alloca %"class.google::protobuf::internal::RepeatedPtrIterator.199", align 8
  %this.addr = alloca ptr, align 8
  %ref.tmp = alloca %"class.google::protobuf::internal::RepeatedPtrIterator.232", align 8
  store ptr %this, ptr %this.addr, align 8
  %this1 = load ptr, ptr %this.addr, align 8
  %call = call noundef ptr @_ZNK6google8protobuf8internal20RepeatedPtrFieldBase8raw_dataEv(ptr noundef nonnull align 8 dereferenceable(24) %this1)
  %call2 = call noundef i32 @_ZNK6google8protobuf16RepeatedPtrFieldINS0_28GeneratedCodeInfo_AnnotationEE4sizeEv(ptr noundef nonnull align 8 dereferenceable(24) %this1)
  %idx.ext = sext i32 %call2 to i64
  %add.ptr = getelementptr inbounds ptr, ptr %call, i64 %idx.ext
  call void @_ZN6google8protobuf8internal19RepeatedPtrIteratorINS0_28GeneratedCodeInfo_AnnotationEEC2EPKPv(ptr noundef nonnull align 8 dereferenceable(8) %ref.tmp, ptr noundef %add.ptr)
  call void @_ZN6google8protobuf8internal19RepeatedPtrIteratorIKNS0_28GeneratedCodeInfo_AnnotationEEC2IS3_TnPNSt9enable_ifIXsr3std14is_convertibleIPT_PS4_EE5valueEvE4typeELPv0EEERKNS2_IS8_EE(ptr noundef nonnull align 8 dereferenceable(8) %retval, ptr noundef nonnull align 8 dereferenceable(8) %ref.tmp)
  %coerce.dive = getelementptr inbounds %"class.google::protobuf::internal::RepeatedPtrIterator.199", ptr %retval, i32 0, i32 0
  %0 = load ptr, ptr %coerce.dive, align 8
  ret ptr %0
}

; Function Attrs: mustprogress uwtable
define linkonce_odr hidden ptr @_ZNK6google8protobuf16RepeatedPtrFieldINS0_28GeneratedCodeInfo_AnnotationEE5beginEv(ptr noundef nonnull align 8 dereferenceable(24) %this) #4 comdat align 2 {
entry:
  %retval = alloca %"class.google::protobuf::internal::RepeatedPtrIterator.199", align 8
  %this.addr = alloca ptr, align 8
  %ref.tmp = alloca %"class.google::protobuf::internal::RepeatedPtrIterator.232", align 8
  store ptr %this, ptr %this.addr, align 8
  %this1 = load ptr, ptr %this.addr, align 8
  %call = call noundef ptr @_ZNK6google8protobuf8internal20RepeatedPtrFieldBase8raw_dataEv(ptr noundef nonnull align 8 dereferenceable(24) %this1)
  call void @_ZN6google8protobuf8internal19RepeatedPtrIteratorINS0_28GeneratedCodeInfo_AnnotationEEC2EPKPv(ptr noundef nonnull align 8 dereferenceable(8) %ref.tmp, ptr noundef %call)
  call void @_ZN6google8protobuf8internal19RepeatedPtrIteratorIKNS0_28GeneratedCodeInfo_AnnotationEEC2IS3_TnPNSt9enable_ifIXsr3std14is_convertibleIPT_PS4_EE5valueEvE4typeELPv0EEERKNS2_IS8_EE(ptr noundef nonnull align 8 dereferenceable(8) %retval, ptr noundef nonnull align 8 dereferenceable(8) %ref.tmp)
  %coerce.dive = getelementptr inbounds %"class.google::protobuf::internal::RepeatedPtrIterator.199", ptr %retval, i32 0, i32 0
  %0 = load ptr, ptr %coerce.dive, align 8
  ret ptr %0
}

; Function Attrs: mustprogress nounwind uwtable
define linkonce_odr hidden noundef nonnull align 8 dereferenceable(24) ptr @_ZNK6google8protobuf17GeneratedCodeInfo20_internal_annotationEv(ptr noundef nonnull align 8 dereferenceable(48) %this) #5 comdat align 2 {
entry:
  %this.addr = alloca ptr, align 8
  store ptr %this, ptr %this.addr, align 8
  %this1 = load ptr, ptr %this.addr, align 8
  %0 = getelementptr inbounds %"class.google::protobuf::GeneratedCodeInfo", ptr %this1, i32 0, i32 1
  %annotation_ = getelementptr inbounds %"struct.google::protobuf::GeneratedCodeInfo::Impl_", ptr %0, i32 0, i32 0
  ret ptr %annotation_
}

; Function Attrs: mustprogress uwtable
define linkonce_odr hidden noundef i32 @_ZNK6google8protobuf17GeneratedCodeInfo25_internal_annotation_sizeEv(ptr noundef nonnull align 8 dereferenceable(48) %this) #4 comdat align 2 {
entry:
  %this.addr = alloca ptr, align 8
  store ptr %this, ptr %this.addr, align 8
  %this1 = load ptr, ptr %this.addr, align 8
  %call = call noundef nonnull align 8 dereferenceable(24) ptr @_ZNK6google8protobuf17GeneratedCodeInfo20_internal_annotationEv(ptr noundef nonnull align 8 dereferenceable(48) %this1)
  %call2 = call noundef i32 @_ZNK6google8protobuf16RepeatedPtrFieldINS0_28GeneratedCodeInfo_AnnotationEE4sizeEv(ptr noundef nonnull align 8 dereferenceable(24) %call)
  ret i32 %call2
}

; Function Attrs: mustprogress uwtable
define noundef i64 @_ZNK6google8protobuf17GeneratedCodeInfo12ByteSizeLongEv(ptr noundef nonnull align 8 dereferenceable(48) %this) unnamed_addr #4 align 2 {
entry:
  %this.addr = alloca ptr, align 8
  %total_size = alloca i64, align 8
  %cached_has_bits = alloca i32, align 4
  %__range2 = alloca ptr, align 8
  %__begin2 = alloca %"class.google::protobuf::internal::RepeatedPtrIterator.199", align 8
  %__end2 = alloca %"class.google::protobuf::internal::RepeatedPtrIterator.199", align 8
  %msg = alloca ptr, align 8
  store ptr %this, ptr %this.addr, align 8
  %this1 = load ptr, ptr %this.addr, align 8
  store i64 0, ptr %total_size, align 8
  store i32 0, ptr %cached_has_bits, align 4
  %call = call noundef i32 @_ZNK6google8protobuf17GeneratedCodeInfo25_internal_annotation_sizeEv(ptr noundef nonnull align 8 dereferenceable(48) %this1)
  %conv = sext i32 %call to i64
  %mul = mul i64 1, %conv
  %0 = load i64, ptr %total_size, align 8
  %add = add i64 %0, %mul
  store i64 %add, ptr %total_size, align 8
  %call2 = call noundef nonnull align 8 dereferenceable(24) ptr @_ZNK6google8protobuf17GeneratedCodeInfo20_internal_annotationEv(ptr noundef nonnull align 8 dereferenceable(48) %this1)
  store ptr %call2, ptr %__range2, align 8
  %1 = load ptr, ptr %__range2, align 8
  %call3 = call ptr @_ZNK6google8protobuf16RepeatedPtrFieldINS0_28GeneratedCodeInfo_AnnotationEE5beginEv(ptr noundef nonnull align 8 dereferenceable(24) %1)
  %coerce.dive = getelementptr inbounds %"class.google::protobuf::internal::RepeatedPtrIterator.199", ptr %__begin2, i32 0, i32 0
  store ptr %call3, ptr %coerce.dive, align 8
  %2 = load ptr, ptr %__range2, align 8
  %call4 = call ptr @_ZNK6google8protobuf16RepeatedPtrFieldINS0_28GeneratedCodeInfo_AnnotationEE3endEv(ptr noundef nonnull align 8 dereferenceable(24) %2)
  %coerce.dive5 = getelementptr inbounds %"class.google::protobuf::internal::RepeatedPtrIterator.199", ptr %__end2, i32 0, i32 0
  store ptr %call4, ptr %coerce.dive5, align 8
  br label %for.cond

for.cond:                                         ; preds = %for.inc, %entry
  %call6 = call noundef zeroext i1 @_ZN6google8protobuf8internalneERKNS1_19RepeatedPtrIteratorIKNS0_28GeneratedCodeInfo_AnnotationEEES7_(ptr noundef nonnull align 8 dereferenceable(8) %__begin2, ptr noundef nonnull align 8 dereferenceable(8) %__end2)
  br i1 %call6, label %for.body, label %for.end

for.body:                                         ; preds = %for.cond
  %call7 = call noundef nonnull align 8 dereferenceable(72) ptr @_ZNK6google8protobuf8internal19RepeatedPtrIteratorIKNS0_28GeneratedCodeInfo_AnnotationEEdeEv(ptr noundef nonnull align 8 dereferenceable(8) %__begin2)
  store ptr %call7, ptr %msg, align 8
  %3 = load ptr, ptr %msg, align 8
  %call8 = call noundef i64 @_ZN6google8protobuf8internal14WireFormatLite11MessageSizeINS0_28GeneratedCodeInfo_AnnotationEEEmRKT_(ptr noundef nonnull align 8 dereferenceable(72) %3)
  %4 = load i64, ptr %total_size, align 8
  %add9 = add i64 %4, %call8
  store i64 %add9, ptr %total_size, align 8
  br label %for.inc

for.inc:                                          ; preds = %for.body
  %call10 = call noundef nonnull align 8 dereferenceable(8) ptr @_ZN6google8protobuf8internal19RepeatedPtrIteratorIKNS0_28GeneratedCodeInfo_AnnotationEEppEv(ptr noundef nonnull align 8 dereferenceable(8) %__begin2)
  br label %for.cond

for.end:                                          ; preds = %for.cond
  %5 = load i64, ptr %total_size, align 8
  %6 = getelementptr inbounds %"class.google::protobuf::GeneratedCodeInfo", ptr %this1, i32 0, i32 1
  %_cached_size_ = getelementptr inbounds %"struct.google::protobuf::GeneratedCodeInfo::Impl_", ptr %6, i32 0, i32 1
  %call11 = call noundef i64 @_ZNK6google8protobuf7Message29MaybeComputeUnknownFieldsSizeEmPNS0_8internal10CachedSizeE(ptr noundef nonnull align 8 dereferenceable(16) %this1, i64 noundef %5, ptr noundef %_cached_size_)
  ret i64 %call11
}