; Function Attrs: mustprogress uwtable
define noundef i64 @_ZNK6google8protobuf17GeneratedCodeInfo12ByteSizeLongEv(ptr noundef nonnull align 8 dereferenceable(48) %this) unnamed_addr #3 align 2 personality ptr @__gxx_personality_v0 {
entry:
  %current_size_.i.i.i = getelementptr inbounds i8, ptr %this, i64 24
  %0 = load i32, ptr %current_size_.i.i.i, align 8
  %conv = sext i32 %0 to i64
  %1 = getelementptr inbounds i8, ptr %this, i64 16
  %2 = load ptr, ptr %1, align 8
  %3 = ptrtoint ptr %2 to i64
  %and.i.i.i.i = and i64 %3, 1
  %cmp.i.i.i.i = icmp eq i64 %and.i.i.i.i, 0
  %sub.i.i.i.i.i = add i64 %3, -1
  %4 = inttoptr i64 %sub.i.i.i.i.i to ptr
  %elements.i.i.i = getelementptr inbounds i8, ptr %4, i64 8
  %cond.i.i.i = select i1 %cmp.i.i.i.i, ptr %1, ptr %elements.i.i.i
  %add.ptr.i = getelementptr inbounds ptr, ptr %cond.i.i.i, i64 %conv
  %cmp.i.not12 = icmp eq i32 %0, 0
  br i1 %cmp.i.not12, label %for.end, label %for.body

for.body:                                         ; preds = %entry, %for.body
  %total_size.014 = phi i64 [ %add9, %for.body ], [ %conv, %entry ]
  %__begin2.sroa.0.013 = phi ptr [ %incdec.ptr.i, %for.body ], [ %cond.i.i.i, %entry ]
  %5 = load ptr, ptr %__begin2.sroa.0.013, align 8
  %call.i = tail call noundef i64 @_ZNK6google8protobuf28GeneratedCodeInfo_Annotation12ByteSizeLongEv(ptr noundef nonnull align 8 dereferenceable(72) %5)
  %conv.i.i = trunc i64 %call.i to i32
  %or.i.i.i = or i32 %conv.i.i, 1
  %6 = tail call noundef i32 @llvm.ctlz.i32(i32 %or.i.i.i, i1 true), !range !7
  %sub.i.i.i = xor i32 %6, 31
  %mul.i.i.i = mul nuw nsw i32 %sub.i.i.i, 9
  %add.i.i.i = add nuw nsw i32 %mul.i.i.i, 73
  %div1.i.i.i = lshr i32 %add.i.i.i, 6
  %conv.i.i.i = zext nneg i32 %div1.i.i.i to i64
  %add.i.i = add i64 %call.i, %total_size.014
  %add9 = add i64 %add.i.i, %conv.i.i.i
  %incdec.ptr.i = getelementptr inbounds i8, ptr %__begin2.sroa.0.013, i64 8
  %cmp.i.not = icmp eq ptr %incdec.ptr.i, %add.ptr.i
  br i1 %cmp.i.not, label %for.end, label %for.body

for.end:                                          ; preds = %for.body, %entry
  %total_size.0.lcssa = phi i64 [ 0, %entry ], [ %add9, %for.body ]
  %_cached_size_ = getelementptr inbounds i8, ptr %this, i64 40
  %call11 = tail call noundef i64 @_ZNK6google8protobuf7Message29MaybeComputeUnknownFieldsSizeEmPNS0_8internal10CachedSizeE(ptr noundef nonnull align 8 dereferenceable(16) %this, i64 noundef %total_size.0.lcssa, ptr noundef nonnull %_cached_size_)
  ret i64 %call11
}